	.file	"ee_oo_api_osek.c"
__SP_H__ = 0x3e
__SP_L__ = 0x3d
__SREG__ = 0x3f
__tmp_reg__ = 0
__zero_reg__ = 1
	.text
.Ltext0:
	.cfi_sections	.debug_frame
	.section	.text.DisableAllInterrupts,"ax",@progbits
.global	DisableAllInterrupts
	.type	DisableAllInterrupts, @function
DisableAllInterrupts:
.LFB56:
	.file 1 "C:\\Evidence\\WORKSP~1\\FULL_P~1\\erika\\src\\ee_oo_api_osek.c"
	.loc 1 64 0
	.cfi_startproc
/* prologue: function */
/* frame size = 0 */
/* stack size = 0 */
.L__stack_usage = 0
	.loc 1 66 0
	lds r30,osEE_cdb_var
	lds r31,osEE_cdb_var+1
.LBB393:
.LBB394:
	.file 2 "C:\\Evidence\\WORKSP~1\\FULL_P~1\\erika\\src\\ee_hal_internal.h"
	.loc 2 105 0
/* #APP */
 ;  105 "C:\Evidence\WORKSP~1\FULL_P~1\erika\src\ee_hal_internal.h" 1
	cli
 ;  0 "" 2
.LVL0:
/* #NOAPP */
.LBE394:
.LBE393:
	.loc 1 73 0
	ldi r24,lo8(1)
	std Z+17,r24
.LVL1:
	ret
	.cfi_endproc
.LFE56:
	.size	DisableAllInterrupts, .-DisableAllInterrupts
	.section	.text.EnableAllInterrupts,"ax",@progbits
.global	EnableAllInterrupts
	.type	EnableAllInterrupts, @function
EnableAllInterrupts:
.LFB57:
	.loc 1 83 0
	.cfi_startproc
/* prologue: function */
/* frame size = 0 */
/* stack size = 0 */
.L__stack_usage = 0
	.loc 1 90 0
	lds r30,osEE_cdb_var
	lds r31,osEE_cdb_var+1
.LVL2:
	.loc 1 96 0
	ldd r24,Z+17
	tst r24
	breq .L2
	.loc 1 97 0
	std Z+17,__zero_reg__
.LBB395:
.LBB396:
	.loc 2 110 0
/* #APP */
 ;  110 "C:\Evidence\WORKSP~1\FULL_P~1\erika\src\ee_hal_internal.h" 1
	sei
 ;  0 "" 2
.LVL3:
/* #NOAPP */
.L2:
	ret
.LBE396:
.LBE395:
	.cfi_endproc
.LFE57:
	.size	EnableAllInterrupts, .-EnableAllInterrupts
	.section	.text.SuspendAllInterrupts,"ax",@progbits
.global	SuspendAllInterrupts
	.type	SuspendAllInterrupts, @function
SuspendAllInterrupts:
.LFB59:
	.loc 1 133 0
	.cfi_startproc
/* prologue: function */
/* frame size = 0 */
/* stack size = 0 */
.L__stack_usage = 0
	.loc 1 135 0
	lds r30,osEE_cdb_var
	lds r31,osEE_cdb_var+1
.LVL4:
.LBB409:
.LBB410:
	.loc 1 113 0
	ldd r24,Z+15
	cpse r24,__zero_reg__
	rjmp .L9
.LBB411:
.LBB412:
.LBB413:
	.loc 2 116 0
	in r24,__SREG__
.LVL5:
.LBB414:
.LBB415:
	.loc 2 105 0
/* #APP */
 ;  105 "C:\Evidence\WORKSP~1\FULL_P~1\erika\src\ee_hal_internal.h" 1
	cli
 ;  0 "" 2
/* #NOAPP */
.LBE415:
.LBE414:
.LBE413:
.LBE412:
	.loc 1 115 0
	std Z+13,r24
	.loc 1 116 0
	ldd r24,Z+15
.LVL6:
	rjmp .L13
.LVL7:
.L9:
.LBE411:
	.loc 1 117 0
	cpi r24,lo8(-1)
	breq .L11
.L13:
	.loc 1 118 0
	subi r24,lo8(-(1))
	std Z+15,r24
	ret
.L11:
.LVL8:
.LBB416:
.LBB417:
	.file 3 "C:\\Evidence\\WORKSP~1\\FULL_P~1\\erika\\src\\ee_kernel.h"
	.loc 3 694 0
	ldi r24,lo8(3)
	ldi r25,0
	std Z+9,r25
	std Z+8,r24
	.loc 3 696 0
	ldi r24,lo8(25)
	ldi r25,0
	std Z+12,r25
	std Z+11,r24
.LBB418:
.LBB419:
	.loc 2 105 0
/* #APP */
 ;  105 "C:\Evidence\WORKSP~1\FULL_P~1\erika\src\ee_hal_internal.h" 1
	cli
 ;  0 "" 2
/* #NOAPP */
.L12:
	rjmp .L12
.LBE419:
.LBE418:
.LBE417:
.LBE416:
.LBE410:
.LBE409:
	.cfi_endproc
.LFE59:
	.size	SuspendAllInterrupts, .-SuspendAllInterrupts
	.section	.text.ResumeAllInterrupts,"ax",@progbits
.global	ResumeAllInterrupts
	.type	ResumeAllInterrupts, @function
ResumeAllInterrupts:
.LFB60:
	.loc 1 153 0
	.cfi_startproc
/* prologue: function */
/* frame size = 0 */
/* stack size = 0 */
.L__stack_usage = 0
	.loc 1 155 0
	lds r30,osEE_cdb_var
	lds r31,osEE_cdb_var+1
.LVL9:
	.loc 1 161 0
	ldd r24,Z+15
	tst r24
	breq .L14
	.loc 1 162 0
	subi r24,lo8(-(-1))
	std Z+15,r24
	.loc 1 164 0
	cpse r24,__zero_reg__
	rjmp .L14
	.loc 1 165 0
	ldd r24,Z+13
.LVL10:
.LBB420:
.LBB421:
	.loc 2 123 0
	.loc 2 124 0
	out __SREG__,r24
.LVL11:
.L14:
	ret
.LBE421:
.LBE420:
	.cfi_endproc
.LFE60:
	.size	ResumeAllInterrupts, .-ResumeAllInterrupts
	.section	.text.SuspendOSInterrupts,"ax",@progbits
.global	SuspendOSInterrupts
	.type	SuspendOSInterrupts, @function
SuspendOSInterrupts:
.LFB61:
	.loc 1 179 0
	.cfi_startproc
/* prologue: function */
/* frame size = 0 */
/* stack size = 0 */
.L__stack_usage = 0
	.loc 1 181 0
	lds r30,osEE_cdb_var
	lds r31,osEE_cdb_var+1
.LVL12:
	.loc 1 187 0
	ldd r24,Z+16
	cpse r24,__zero_reg__
	rjmp .L19
.LBB422:
.LBB423:
.LBB424:
.LBB425:
	.loc 2 116 0
	in r24,__SREG__
.LVL13:
.LBB426:
.LBB427:
	.loc 2 105 0
/* #APP */
 ;  105 "C:\Evidence\WORKSP~1\FULL_P~1\erika\src\ee_hal_internal.h" 1
	cli
 ;  0 "" 2
/* #NOAPP */
.LBE427:
.LBE426:
.LBE425:
.LBE424:
.LBE423:
	.loc 1 189 0
	std Z+14,r24
	.loc 1 190 0
	ldd r24,Z+16
.LVL14:
	rjmp .L23
.LVL15:
.L19:
.LBE422:
	.loc 1 191 0
	cpi r24,lo8(-1)
	breq .L21
.L23:
	.loc 1 192 0
	subi r24,lo8(-(1))
	std Z+16,r24
	ret
.L21:
.LVL16:
.LBB428:
.LBB429:
	.loc 3 694 0
	ldi r24,lo8(3)
	ldi r25,0
	std Z+9,r25
	std Z+8,r24
	.loc 3 696 0
	ldi r24,lo8(25)
	ldi r25,0
	std Z+12,r25
	std Z+11,r24
.LBB430:
.LBB431:
	.loc 2 105 0
/* #APP */
 ;  105 "C:\Evidence\WORKSP~1\FULL_P~1\erika\src\ee_hal_internal.h" 1
	cli
 ;  0 "" 2
/* #NOAPP */
.L22:
	rjmp .L22
.LBE431:
.LBE430:
.LBE429:
.LBE428:
	.cfi_endproc
.LFE61:
	.size	SuspendOSInterrupts, .-SuspendOSInterrupts
	.section	.text.ResumeOSInterrupts,"ax",@progbits
.global	ResumeOSInterrupts
	.type	ResumeOSInterrupts, @function
ResumeOSInterrupts:
.LFB62:
	.loc 1 211 0
	.cfi_startproc
/* prologue: function */
/* frame size = 0 */
/* stack size = 0 */
.L__stack_usage = 0
	.loc 1 213 0
	lds r30,osEE_cdb_var
	lds r31,osEE_cdb_var+1
.LVL17:
	.loc 1 219 0
	ldd r24,Z+16
	tst r24
	breq .L24
	.loc 1 220 0
	subi r24,lo8(-(-1))
	std Z+16,r24
	.loc 1 222 0
	cpse r24,__zero_reg__
	rjmp .L24
	.loc 1 223 0
	ldd r24,Z+14
.LVL18:
.LBB432:
.LBB433:
.LBB434:
	.loc 2 123 0
	.loc 2 124 0
	out __SREG__,r24
.LVL19:
.L24:
	ret
.LBE434:
.LBE433:
.LBE432:
	.cfi_endproc
.LFE62:
	.size	ResumeOSInterrupts, .-ResumeOSInterrupts
	.section	.text.StartOS,"ax",@progbits
.global	StartOS
	.type	StartOS, @function
StartOS:
.LFB63:
	.loc 1 237 0
	.cfi_startproc
.LVL20:
	push r4
.LCFI0:
	.cfi_def_cfa_offset 3
	.cfi_offset 4, -2
	push r5
.LCFI1:
	.cfi_def_cfa_offset 4
	.cfi_offset 5, -3
	push r6
.LCFI2:
	.cfi_def_cfa_offset 5
	.cfi_offset 6, -4
	push r7
.LCFI3:
	.cfi_def_cfa_offset 6
	.cfi_offset 7, -5
	push r8
.LCFI4:
	.cfi_def_cfa_offset 7
	.cfi_offset 8, -6
	push r9
.LCFI5:
	.cfi_def_cfa_offset 8
	.cfi_offset 9, -7
	push r10
.LCFI6:
	.cfi_def_cfa_offset 9
	.cfi_offset 10, -8
	push r11
.LCFI7:
	.cfi_def_cfa_offset 10
	.cfi_offset 11, -9
	push r12
.LCFI8:
	.cfi_def_cfa_offset 11
	.cfi_offset 12, -10
	push r13
.LCFI9:
	.cfi_def_cfa_offset 12
	.cfi_offset 13, -11
	push r14
.LCFI10:
	.cfi_def_cfa_offset 13
	.cfi_offset 14, -12
	push r15
.LCFI11:
	.cfi_def_cfa_offset 14
	.cfi_offset 15, -13
	push r16
.LCFI12:
	.cfi_def_cfa_offset 15
	.cfi_offset 16, -14
	push r17
.LCFI13:
	.cfi_def_cfa_offset 16
	.cfi_offset 17, -15
	push r28
.LCFI14:
	.cfi_def_cfa_offset 17
	.cfi_offset 28, -16
	push r29
.LCFI15:
	.cfi_def_cfa_offset 18
	.cfi_offset 29, -17
	rcall .
.LCFI16:
	.cfi_def_cfa_offset 20
	in r28,__SP_L__
	in r29,__SP_H__
.LCFI17:
	.cfi_def_cfa_register 28
/* prologue: function */
/* frame size = 2 */
/* stack size = 18 */
.L__stack_usage = 18
.LVL21:
	.loc 1 246 0
	lds r16,osEE_cdb_var
	lds r17,osEE_cdb_var+1
.LVL22:
.LBB456:
.LBB457:
.LBB458:
.LBB459:
	.loc 2 116 0
	in r25,__SREG__
.LVL23:
.LBB460:
.LBB461:
	.loc 2 105 0
/* #APP */
 ;  105 "C:\Evidence\WORKSP~1\FULL_P~1\erika\src\ee_hal_internal.h" 1
	cli
 ;  0 "" 2
.LVL24:
/* #NOAPP */
.LBE461:
.LBE460:
.LBE459:
.LBE458:
.LBE457:
.LBE456:
	.loc 1 254 0
	movw r26,r16
	adiw r26,8
	ld r18,X+
	ld r19,X
	sbiw r26,8+1
	or r18,r19
	breq .+2
	rjmp .L29
	mov r15,r24
.LBB462:
.LBB463:
	.loc 2 173 0
	ldi r24,lo8(gs(osEE_atmega_intvect))
	ldi r25,hi8(gs(osEE_atmega_intvect))
.LVL25:
	std Y+2,r25
	std Y+1,r24
.LBE463:
.LBE462:
.LBB464:
	.loc 1 280 0
	lds r12,osEE_cdb_var+4
	lds r13,osEE_cdb_var+4+1
.LVL26:
	.loc 1 300 0
	ldi r24,lo8(1)
	ldi r25,0
	adiw r26,8+1
	st X,r25
	st -X,r24
	sbiw r26,8
	.loc 1 301 0
	adiw r26,10
	st X,r15
.LVL27:
.LBB465:
.LBB466:
	.loc 3 331 0
	call StartupHook
.LVL28:
.LBE466:
.LBE465:
.LBB467:
	.loc 1 468 0
	lds r4,osEE_cdb_var+6
	lds r5,osEE_cdb_var+6+1
.LVL29:
	.loc 1 471 0
	movw r8,r16
	ldi r27,2
	add r8,r27
	adc r9,__zero_reg__
.LVL30:
	.loc 1 483 0
	movw r30,r4
	ldi r24,lo8(4)
	mul r15,r24
	add r30,r0
	adc r31,r1
	clr __zero_reg__
	ldd r10,Z+2
	ldd r11,Z+3
.LVL31:
	.loc 1 484 0
	mov r14,__zero_reg__
	mov r15,__zero_reg__
.LBB468:
	.loc 1 486 0
	movw r4,r30
	.loc 1 492 0
	clr r6
	inc r6
	mov r7,__zero_reg__
.LVL32:
.L30:
.LBE468:
	.loc 1 484 0 discriminator 1
	cp r14,r10
	cpc r15,r11
	breq .L36
.LBB471:
	.loc 1 486 0 discriminator 3
	movw r26,r4
	ld r30,X+
	ld r31,X
	movw r24,r14
	lsl r24
	rol r25
	add r30,r24
	adc r31,r25
	ld r20,Z
	ldd r21,Z+1
.LVL33:
	.loc 1 488 0 discriminator 3
	movw r26,r20
	adiw r26,4
	ld r30,X+
	ld r31,X
	sbiw r26,4+1
.LVL34:
	.loc 1 491 0 discriminator 3
	ld r24,Z
	subi r24,lo8(-(1))
	st Z,r24
	.loc 1 492 0 discriminator 3
	std Z+3,r7
	std Z+2,r6
.LVL35:
.LBB469:
.LBB470:
	.file 4 "C:\\Evidence\\WORKSP~1\\FULL_P~1\\erika\\inc/ee_scheduler_types.h"
	.loc 4 100 0 discriminator 3
	movw r30,r16
.LVL36:
	ldd r22,Z+4
	ldd r23,Z+5
.LVL37:
	.loc 4 101 0 discriminator 3
	movw r26,r22
	ld r24,X+
	ld r25,X
	sbiw r26,1
	std Z+5,r25
	std Z+4,r24
	.loc 4 102 0 discriminator 3
	st X+,__zero_reg__
	st X,__zero_reg__
.LBE470:
.LBE469:
	.loc 1 494 0 discriminator 3
	movw r24,r8
	call osEE_scheduler_rq_insert
.LVL38:
.LBE471:
	.loc 1 484 0 discriminator 3
	ldi r27,-1
	sub r14,r27
	sbc r15,r27
.LVL39:
	rjmp .L30
.LVL40:
.L36:
.LBE467:
	.loc 1 527 0
	movw r30,r16
	ldd r24,Z+8
	ldd r25,Z+9
	sbiw r24,1
	brne .L32
	.loc 1 528 0
	ldi r24,lo8(2)
	ldi r25,0
	std Z+9,r25
	std Z+8,r24
.L32:
.LVL41:
	.loc 1 537 0
	movw r26,r16
	adiw r26,8
	ld r24,X+
	ld r25,X
	sbiw r26,8+1
	sbiw r24,2
	brne .L33
.LVL42:
.LBB472:
.LBB473:
	.file 5 "C:\\Evidence\\WORKSP~1\\FULL_P~1\\erika\\src\\ee_std_change_context.h"
	.loc 5 150 0
	movw r30,r12
	ldd r22,Z+2
	ldd r23,Z+3
	movw r20,r22
	movw r24,r12
	call osEE_hal_save_ctx_and_ready2stacked
.LVL43:
.LBE473:
.LBE472:
	.loc 1 539 0
	movw r24,r12
	call osEE_task_end
.LVL44:
	rjmp .L33
.LVL45:
.L29:
.LBE464:
.LBB474:
.LBB475:
.LBB476:
.LBB477:
	.loc 2 123 0
	.loc 2 124 0
	out __SREG__,r25
.LBE477:
.LBE476:
.LBE475:
.LBE474:
	.loc 1 258 0
	ldi r24,lo8(1)
	ldi r25,0
.LVL46:
	rjmp .L35
.LVL47:
.L33:
	.loc 1 238 0
	ldi r24,0
	ldi r25,0
.LVL48:
.L35:
/* epilogue start */
	.loc 1 582 0
	pop __tmp_reg__
	pop __tmp_reg__
	pop r29
	pop r28
	pop r17
	pop r16
	pop r15
	pop r14
	pop r13
	pop r12
	pop r11
	pop r10
	pop r9
	pop r8
	pop r7
	pop r6
	pop r5
	pop r4
	ret
	.cfi_endproc
.LFE63:
	.size	StartOS, .-StartOS
	.section	.text.GetActiveApplicationMode,"ax",@progbits
.global	GetActiveApplicationMode
	.type	GetActiveApplicationMode, @function
GetActiveApplicationMode:
.LFB64:
	.loc 1 589 0
	.cfi_startproc
/* prologue: function */
/* frame size = 0 */
/* stack size = 0 */
.L__stack_usage = 0
	.loc 1 598 0
	lds r30,osEE_cdb_var
	lds r31,osEE_cdb_var+1
.LVL49:
	.loc 1 604 0
	ldd r24,Z+8
	ldd r25,Z+9
	or r24,r25
	breq .L39
	.loc 1 605 0
	ldd r24,Z+10
.LVL50:
	ret
.LVL51:
.L39:
	.loc 1 607 0
	ldi r24,lo8(-1)
.LVL52:
	.loc 1 613 0
	ret
	.cfi_endproc
.LFE64:
	.size	GetActiveApplicationMode, .-GetActiveApplicationMode
	.section	.text.ActivateTask,"ax",@progbits
.global	ActivateTask
	.type	ActivateTask, @function
ActivateTask:
.LFB65:
	.loc 1 620 0
	.cfi_startproc
.LVL53:
	push r15
.LCFI18:
	.cfi_def_cfa_offset 3
	.cfi_offset 15, -2
	push r16
.LCFI19:
	.cfi_def_cfa_offset 4
	.cfi_offset 16, -3
	push r17
.LCFI20:
	.cfi_def_cfa_offset 5
	.cfi_offset 17, -4
	push r28
.LCFI21:
	.cfi_def_cfa_offset 6
	.cfi_offset 28, -5
	push r29
.LCFI22:
	.cfi_def_cfa_offset 7
	.cfi_offset 29, -6
/* prologue: function */
/* frame size = 0 */
/* stack size = 5 */
.L__stack_usage = 5
.LVL54:
.LBB478:
.LBB479:
	.loc 3 276 0
	ldi r25,0
.LBE479:
.LBE478:
	.loc 1 655 0
	lds r18,osEE_kdb_var+4
	lds r19,osEE_kdb_var+4+1
	cp r24,r18
	cpc r25,r19
	brsh .L44
.LBB480:
	.loc 1 660 0
	lds r30,osEE_kdb_var+2
	lds r31,osEE_kdb_var+2+1
	lsl r24
	rol r25
.LVL55:
	add r30,r24
	adc r31,r25
	ld r16,Z
	ldd r17,Z+1
.LVL56:
	.loc 1 662 0
	movw r30,r16
	ldd r24,Z+7
	ldd r25,Z+8
	sbiw r24,2
	brsh .L44
.LBB481:
.LBB482:
.LBB483:
.LBB484:
.LBB485:
	.loc 2 116 0
	in r15,__SREG__
.LVL57:
.LBB486:
.LBB487:
	.loc 2 105 0
/* #APP */
 ;  105 "C:\Evidence\WORKSP~1\FULL_P~1\erika\src\ee_hal_internal.h" 1
	cli
 ;  0 "" 2
/* #NOAPP */
.LBE487:
.LBE486:
.LBE485:
.LBE484:
.LBE483:
.LBE482:
	.loc 1 665 0
	movw r24,r16
	call osEE_task_activated
.LVL58:
	movw r28,r24
.LVL59:
	.loc 1 667 0
	or r24,r25
	brne .L42
	.loc 1 668 0
	movw r22,r16
	ldi r24,lo8(osEE_kdb_var)
	ldi r25,hi8(osEE_kdb_var)
.LVL60:
	call osEE_scheduler_task_activated
.LVL61:
.L42:
.LBB488:
.LBB489:
.LBB490:
.LBB491:
	.loc 2 123 0
	.loc 2 124 0
	out __SREG__,r15
	rjmp .L41
.LVL62:
.L44:
.LBE491:
.LBE490:
.LBE489:
.LBE488:
.LBE481:
.LBE480:
	.loc 1 656 0
	ldi r28,lo8(3)
	ldi r29,0
.LVL63:
.L41:
	.loc 1 692 0
	movw r24,r28
/* epilogue start */
	pop r29
	pop r28
.LVL64:
	pop r17
	pop r16
	pop r15
	ret
	.cfi_endproc
.LFE65:
	.size	ActivateTask, .-ActivateTask
	.section	.text.ChainTask,"ax",@progbits
.global	ChainTask
	.type	ChainTask, @function
ChainTask:
.LFB66:
	.loc 1 699 0
	.cfi_startproc
.LVL65:
	push r15
.LCFI23:
	.cfi_def_cfa_offset 3
	.cfi_offset 15, -2
	push r16
.LCFI24:
	.cfi_def_cfa_offset 4
	.cfi_offset 16, -3
	push r17
.LCFI25:
	.cfi_def_cfa_offset 5
	.cfi_offset 17, -4
	push r28
.LCFI26:
	.cfi_def_cfa_offset 6
	.cfi_offset 28, -5
	push r29
.LCFI27:
	.cfi_def_cfa_offset 7
	.cfi_offset 29, -6
/* prologue: function */
/* frame size = 0 */
/* stack size = 5 */
.L__stack_usage = 5
	.loc 1 711 0
	lds r28,osEE_cdb_var
	lds r29,osEE_cdb_var+1
.LVL66:
	.loc 1 713 0
	ld r18,Y
	ldd r19,Y+1
.LVL67:
.LBB492:
.LBB493:
	.loc 3 276 0
	ldi r25,0
.LBE493:
.LBE492:
	.loc 1 745 0
	lds r20,osEE_kdb_var+4
	lds r21,osEE_kdb_var+4+1
	cp r24,r20
	cpc r25,r21
	brsh .L53
.LBB494:
	.loc 1 749 0
	lds r30,osEE_kdb_var+2
	lds r31,osEE_kdb_var+2+1
	lsl r24
	rol r25
.LVL68:
	add r30,r24
	adc r31,r25
	ld r16,Z
	ldd r17,Z+1
.LVL69:
	.loc 1 771 0
	movw r26,r16
	adiw r26,7
	ld r24,X+
	ld r25,X
	sbiw r26,7+1
	sbiw r24,2
	brsh .L53
.LBB495:
	.loc 1 775 0
	ldd r24,Y+15
	tst r24
	breq .L47
	.loc 1 776 0
	std Y+15,__zero_reg__
	.loc 1 777 0
	ldd r24,Y+13
.LVL70:
.LBB496:
.LBB497:
	.loc 2 123 0
	.loc 2 124 0
	out __SREG__,r24
.LVL71:
.L47:
.LBE497:
.LBE496:
	.loc 1 779 0
	ldd r24,Y+17
	tst r24
	breq .L48
	.loc 1 780 0
	std Y+17,__zero_reg__
.LBB498:
.LBB499:
	.loc 2 110 0
/* #APP */
 ;  110 "C:\Evidence\WORKSP~1\FULL_P~1\erika\src\ee_hal_internal.h" 1
	sei
 ;  0 "" 2
/* #NOAPP */
.L48:
.LBE499:
.LBE498:
.LBB500:
.LBB501:
.LBB502:
.LBB503:
	.loc 2 116 0
	in r15,__SREG__
.LVL72:
.LBB504:
.LBB505:
	.loc 2 105 0
/* #APP */
 ;  105 "C:\Evidence\WORKSP~1\FULL_P~1\erika\src\ee_hal_internal.h" 1
	cli
 ;  0 "" 2
/* #NOAPP */
.LBE505:
.LBE504:
.LBE503:
.LBE502:
.LBE501:
.LBE500:
	.loc 1 787 0
	cp r16,r18
	cpc r17,r19
	brne .L49
	.loc 1 789 0
	movw r26,r16
	adiw r26,4
	ld r30,X+
	ld r31,X
	sbiw r26,4+1
	ldi r24,lo8(5)
	ldi r25,0
	std Z+3,r25
	std Z+2,r24
.LVL73:
	rjmp .L50
.LVL74:
.L49:
	.loc 1 792 0
	movw r24,r16
	call osEE_task_activated
.LVL75:
	.loc 1 793 0
	sbiw r24,0
	brne .L51
	.loc 1 794 0
	movw r22,r16
	ldi r24,lo8(osEE_kdb_var)
	ldi r25,hi8(osEE_kdb_var)
.LVL76:
	call osEE_scheduler_task_insert
.LVL77:
	rjmp .L50
.LVL78:
.L53:
.LBE495:
.LBE494:
	.loc 1 746 0
	ldi r24,lo8(3)
	ldi r25,0
	rjmp .L60
.LVL79:
.L51:
.LBB513:
.LBB512:
.LBB506:
.LBB507:
.LBB508:
.LBB509:
	.loc 2 123 0
	.loc 2 124 0
	out __SREG__,r15
.LVL80:
	rjmp .L60
.LVL81:
.L50:
	ld r30,Y
	ldd r31,Y+1
.LBE509:
.LBE508:
.LBE507:
.LBE506:
.LBB510:
.LBB511:
	.loc 5 141 0
	ldi r22,lo8(gs(osEE_scheduler_task_end))
	ldi r23,hi8(gs(osEE_scheduler_task_end))
	ldd r24,Z+2
	ldd r25,Z+3
	call osEE_hal_terminate_ctx
.LVL82:
.L60:
/* epilogue start */
.LBE511:
.LBE510:
.LBE512:
.LBE513:
	.loc 1 822 0
	pop r29
	pop r28
	pop r17
	pop r16
	pop r15
	ret
	.cfi_endproc
.LFE66:
	.size	ChainTask, .-ChainTask
	.section	.text.TerminateTask,"ax",@progbits
.global	TerminateTask
	.type	TerminateTask, @function
TerminateTask:
.LFB67:
	.loc 1 829 0
	.cfi_startproc
/* prologue: function */
/* frame size = 0 */
/* stack size = 0 */
.L__stack_usage = 0
	.loc 1 840 0
	lds r30,osEE_cdb_var
	lds r31,osEE_cdb_var+1
.LVL83:
	.loc 1 842 0
	ld r26,Z
	ldd r27,Z+1
.LVL84:
.LBB514:
	.loc 1 902 0
	ldd r24,Z+15
	tst r24
	breq .L62
	.loc 1 903 0
	std Z+15,__zero_reg__
	.loc 1 904 0
	ldd r24,Z+13
.LVL85:
.LBB515:
.LBB516:
	.loc 2 123 0
	.loc 2 124 0
	out __SREG__,r24
.LVL86:
.L62:
.LBE516:
.LBE515:
	.loc 1 906 0
	ldd r24,Z+17
	tst r24
	breq .L63
	.loc 1 907 0
	std Z+17,__zero_reg__
.LBB517:
.LBB518:
	.loc 2 110 0
/* #APP */
 ;  110 "C:\Evidence\WORKSP~1\FULL_P~1\erika\src\ee_hal_internal.h" 1
	sei
 ;  0 "" 2
/* #NOAPP */
.L63:
.LBE518:
.LBE517:
.LBB519:
.LBB520:
.LBB521:
.LBB522:
	.loc 2 116 0
	in r24,__SREG__
.LBB523:
.LBB524:
	.loc 2 105 0
/* #APP */
 ;  105 "C:\Evidence\WORKSP~1\FULL_P~1\erika\src\ee_hal_internal.h" 1
	cli
 ;  0 "" 2
.LVL87:
/* #NOAPP */
.LBE524:
.LBE523:
.LBE522:
.LBE521:
.LBE520:
.LBE519:
.LBB525:
.LBB526:
	.loc 5 141 0
	ldi r22,lo8(gs(osEE_scheduler_task_end))
	ldi r23,hi8(gs(osEE_scheduler_task_end))
	adiw r26,2
	ld r24,X+
	ld r25,X
	sbiw r26,2+1
	call osEE_hal_terminate_ctx
.LVL88:
.LBE526:
.LBE525:
.LBE514:
	.cfi_endproc
.LFE67:
	.size	TerminateTask, .-TerminateTask
	.section	.text.Schedule,"ax",@progbits
.global	Schedule
	.type	Schedule, @function
Schedule:
.LFB68:
	.loc 1 944 0
	.cfi_startproc
	push r15
.LCFI28:
	.cfi_def_cfa_offset 3
	.cfi_offset 15, -2
	push r16
.LCFI29:
	.cfi_def_cfa_offset 4
	.cfi_offset 16, -3
	push r17
.LCFI30:
	.cfi_def_cfa_offset 5
	.cfi_offset 17, -4
	push r28
.LCFI31:
	.cfi_def_cfa_offset 6
	.cfi_offset 28, -5
	push r29
.LCFI32:
	.cfi_def_cfa_offset 7
	.cfi_offset 29, -6
/* prologue: function */
/* frame size = 0 */
/* stack size = 5 */
.L__stack_usage = 5
.LVL89:
	.loc 1 953 0
	lds r30,osEE_cdb_var
	lds r31,osEE_cdb_var+1
	ld r28,Z
	ldd r29,Z+1
.LVL90:
	.loc 1 954 0
	ldd r16,Y+4
	ldd r17,Y+5
.LVL91:
	.loc 1 1003 0
	movw r30,r16
	ldd r25,Z+1
	ldd r24,Y+12
	cpse r25,r24
	rjmp .L71
.LBB527:
.LBB528:
.LBB529:
.LBB530:
.LBB531:
	.loc 2 116 0
	in r15,__SREG__
.LVL92:
.LBB532:
.LBB533:
	.loc 2 105 0
/* #APP */
 ;  105 "C:\Evidence\WORKSP~1\FULL_P~1\erika\src\ee_hal_internal.h" 1
	cli
 ;  0 "" 2
/* #NOAPP */
.LBE533:
.LBE532:
.LBE531:
.LBE530:
.LBE529:
.LBE528:
	.loc 1 1009 0
	ldd r24,Y+11
	std Z+1,r24
	.loc 1 1011 0
	ldi r24,lo8(osEE_kdb_var)
	ldi r25,hi8(osEE_kdb_var)
	call osEE_scheduler_task_preemption_point
.LVL93:
	.loc 1 1013 0
	ldd r24,Y+12
	movw r30,r16
	std Z+1,r24
.LVL94:
.LBB534:
.LBB535:
.LBB536:
.LBB537:
	.loc 2 123 0
	.loc 2 124 0
	out __SREG__,r15
.LVL95:
.L71:
.LBE537:
.LBE536:
.LBE535:
.LBE534:
.LBE527:
	.loc 1 1037 0
	ldi r24,0
	ldi r25,0
/* epilogue start */
	pop r29
	pop r28
.LVL96:
	pop r17
	pop r16
.LVL97:
	pop r15
	ret
	.cfi_endproc
.LFE68:
	.size	Schedule, .-Schedule
	.section	.text.ShutdownOS,"ax",@progbits
.global	ShutdownOS
	.type	ShutdownOS, @function
ShutdownOS:
.LFB69:
	.loc 1 1267 0
	.cfi_startproc
.LVL98:
/* prologue: function */
/* frame size = 0 */
/* stack size = 0 */
.L__stack_usage = 0
	movw r20,r24
	.loc 1 1275 0
	lds r30,osEE_cdb_var
	lds r31,osEE_cdb_var+1
.LVL99:
.LBB538:
.LBB539:
.LBB540:
.LBB541:
	.loc 2 116 0
	in r25,__SREG__
.LVL100:
.LBB542:
.LBB543:
	.loc 2 105 0
/* #APP */
 ;  105 "C:\Evidence\WORKSP~1\FULL_P~1\erika\src\ee_hal_internal.h" 1
	cli
 ;  0 "" 2
/* #NOAPP */
.LBE543:
.LBE542:
.LBE541:
.LBE540:
.LBE539:
.LBE538:
	.loc 1 1277 0
	ldd r18,Z+8
	ldd r19,Z+9
.LVL101:
	.loc 1 1305 0
	subi r18,1
	sbc r19,__zero_reg__
.LVL102:
	cpi r18,2
	cpc r19,__zero_reg__
	brsh .L73
.LVL103:
.LBB544:
.LBB545:
	.loc 3 694 0
	ldi r24,lo8(3)
	ldi r25,0
.LVL104:
	std Z+9,r25
	std Z+8,r24
	.loc 3 696 0
	std Z+12,r21
	std Z+11,r20
.LBB546:
.LBB547:
	.loc 2 105 0
/* #APP */
 ;  105 "C:\Evidence\WORKSP~1\FULL_P~1\erika\src\ee_hal_internal.h" 1
	cli
 ;  0 "" 2
/* #NOAPP */
.L74:
	rjmp .L74
.LVL105:
.L73:
.LBE547:
.LBE546:
.LBE545:
.LBE544:
.LBB548:
.LBB549:
.LBB550:
.LBB551:
	.loc 2 123 0
	.loc 2 124 0
	out __SREG__,r25
.LBE551:
.LBE550:
.LBE549:
.LBE548:
	.loc 1 1327 0
	ldi r24,lo8(7)
	ldi r25,0
	ret
	.cfi_endproc
.LFE69:
	.size	ShutdownOS, .-ShutdownOS
	.section	.text.GetTaskID,"ax",@progbits
.global	GetTaskID
	.type	GetTaskID, @function
GetTaskID:
.LFB70:
	.loc 1 1334 0
	.cfi_startproc
.LVL106:
	push r28
.LCFI33:
	.cfi_def_cfa_offset 3
	.cfi_offset 28, -2
	push r29
.LCFI34:
	.cfi_def_cfa_offset 4
	.cfi_offset 29, -3
/* prologue: function */
/* frame size = 0 */
/* stack size = 2 */
.L__stack_usage = 2
	movw r26,r24
	.loc 1 1343 0
	lds r30,osEE_cdb_var
	lds r31,osEE_cdb_var+1
.LVL107:
	.loc 1 1373 0
	or r24,r25
	breq .L82
.LVL108:
.LBB552:
	.loc 1 1379 0
	ld r28,Z
	ldd r29,Z+1
.LVL109:
	.loc 1 1389 0
	ldd r24,Y+7
	ldd r25,Y+8
.LVL110:
	cpi r24,2
	cpc r25,__zero_reg__
	brlo .L84
	.loc 1 1392 0
	sbiw r24,2
	brne .L83
.LBB553:
	.loc 1 1396 0
	ldd __tmp_reg__,Z+6
	ldd r31,Z+7
	mov r30,__tmp_reg__
.LVL111:
.L80:
.LBB554:
	.loc 1 1405 0
	ld __tmp_reg__,Z+
	ld r31,Z
	mov r30,__tmp_reg__
.LVL112:
.LBE554:
	.loc 1 1398 0
	sbiw r30,0
	breq .L83
.LBB555:
	.loc 1 1400 0
	ldd r28,Z+2
	ldd r29,Z+3
.LVL113:
	.loc 1 1401 0
	ldd r24,Y+7
	ldd r25,Y+8
	sbiw r24,2
	brsh .L80
.LVL114:
.L84:
	.loc 1 1402 0
	ldd r25,Y+6
.LVL115:
	.loc 1 1403 0
	rjmp .L78
.LVL116:
.L83:
.LBE555:
.LBE553:
	.loc 1 1377 0
	ldi r25,lo8(-1)
.LVL117:
.L78:
	.loc 1 1413 0
	st X,r25
.LVL118:
	.loc 1 1414 0
	ldi r24,0
	ldi r25,0
	rjmp .L76
.LVL119:
.L82:
.LBE552:
	.loc 1 1374 0
	ldi r24,lo8(14)
	ldi r25,0
.LVL120:
.L76:
/* epilogue start */
	.loc 1 1431 0
	pop r29
	pop r28
	ret
	.cfi_endproc
.LFE70:
	.size	GetTaskID, .-GetTaskID
	.section	.text.GetTaskState,"ax",@progbits
.global	GetTaskState
	.type	GetTaskState, @function
GetTaskState:
.LFB71:
	.loc 1 1439 0
	.cfi_startproc
.LVL121:
/* prologue: function */
/* frame size = 0 */
/* stack size = 0 */
.L__stack_usage = 0
	movw r26,r22
.LVL122:
	.loc 1 1479 0
	sbiw r26,0
	breq .L92
.LVL123:
.LBB556:
.LBB557:
	.loc 3 276 0
	ldi r25,0
.LBE557:
.LBE556:
	.loc 1 1482 0
	lds r18,osEE_kdb_var+4
	lds r19,osEE_kdb_var+4+1
	cp r24,r18
	cpc r25,r19
	brsh .L93
.LVL124:
.LBB558:
	.loc 1 1487 0
	lds r30,osEE_kdb_var+2
	lds r31,osEE_kdb_var+2+1
	lsl r24
	rol r25
.LVL125:
	add r30,r24
	adc r31,r25
	.loc 1 1490 0
	ld __tmp_reg__,Z+
	ld r31,Z
	mov r30,__tmp_reg__
	ldd __tmp_reg__,Z+4
	ldd r31,Z+5
	mov r30,__tmp_reg__
	.loc 1 1491 0
	ldd r24,Z+2
	ldd r25,Z+3
	cpi r24,3
	cpc r25,__zero_reg__
	brsh .L87
	sbiw r24,1
	brsh .L98
	.loc 1 1493 0
	st X+,__zero_reg__
	st X,__zero_reg__
.LVL126:
	rjmp .L94
.LVL127:
.L87:
	.loc 1 1491 0
	cpi r24,3
	cpc r25,__zero_reg__
	breq .L97
	sbiw r24,6
	brsh .L94
	.loc 1 1504 0
	ldi r24,lo8(4)
	ldi r25,0
	rjmp .L97
.L98:
	.loc 1 1497 0
	ldi r24,lo8(1)
	ldi r25,0
.L97:
	.loc 1 1504 0
	st X+,r24
	st X,r25
.LVL128:
	rjmp .L94
.LVL129:
.L92:
.LBE558:
	.loc 1 1480 0
	ldi r24,lo8(14)
	ldi r25,0
.LVL130:
	ret
.LVL131:
.L93:
	.loc 1 1483 0
	ldi r24,lo8(3)
	ldi r25,0
.LVL132:
	ret
.LVL133:
.L94:
.LBB559:
	.loc 1 1511 0
	ldi r24,0
	ldi r25,0
.LVL134:
.LBE559:
	.loc 1 1529 0
	ret
	.cfi_endproc
.LFE71:
	.size	GetTaskState, .-GetTaskState
	.section	.text.WaitEvent,"ax",@progbits
.global	WaitEvent
	.type	WaitEvent, @function
WaitEvent:
.LFB72:
	.loc 1 1945 0
	.cfi_startproc
.LVL135:
	push r13
.LCFI35:
	.cfi_def_cfa_offset 3
	.cfi_offset 13, -2
	push r14
.LCFI36:
	.cfi_def_cfa_offset 4
	.cfi_offset 14, -3
	push r15
.LCFI37:
	.cfi_def_cfa_offset 5
	.cfi_offset 15, -4
	push r16
.LCFI38:
	.cfi_def_cfa_offset 6
	.cfi_offset 16, -5
	push r17
.LCFI39:
	.cfi_def_cfa_offset 7
	.cfi_offset 17, -6
	push r28
.LCFI40:
	.cfi_def_cfa_offset 8
	.cfi_offset 28, -7
	push r29
.LCFI41:
	.cfi_def_cfa_offset 9
	.cfi_offset 29, -8
/* prologue: function */
/* frame size = 0 */
/* stack size = 7 */
.L__stack_usage = 7
	.loc 1 1950 0
	lds r16,osEE_cdb_var
	lds r17,osEE_cdb_var+1
.LVL136:
	.loc 1 1952 0
	movw r30,r16
	ld r14,Z
	ldd r15,Z+1
.LVL137:
	.loc 1 1954 0
	movw r30,r14
	ldd r28,Z+4
	ldd r29,Z+5
.LVL138:
.LBB560:
.LBB561:
.LBB562:
.LBB563:
.LBB564:
	.loc 2 116 0
	in r13,__SREG__
.LVL139:
.LBB565:
.LBB566:
	.loc 2 105 0
/* #APP */
 ;  105 "C:\Evidence\WORKSP~1\FULL_P~1\erika\src\ee_hal_internal.h" 1
	cli
 ;  0 "" 2
.LVL140:
/* #NOAPP */
.LBE566:
.LBE565:
.LBE564:
.LBE563:
.LBE562:
.LBE561:
	.loc 1 2008 0
	ldd r18,Y+6
	ldd r19,Y+7
	and r18,r24
	and r19,r25
	or r18,r19
	brne .L100
	.loc 1 2010 0
	std Y+5,r25
	std Y+4,r24
	.loc 1 2013 0
	movw r22,r16
	subi r22,-2
	sbci r23,-1
	ldi r24,lo8(osEE_cdb_var)
	ldi r25,hi8(osEE_cdb_var)
.LVL141:
	call osEE_scheduler_core_pop_running
.LVL142:
	.loc 1 2012 0
	std Y+9,r25
	std Y+8,r24
	.loc 1 2015 0
	ldi r24,lo8(3)
	ldi r25,0
	std Y+3,r25
	std Y+2,r24
.LVL143:
	.loc 1 2019 0
	movw r30,r16
	ld r22,Z
	ldd r23,Z+1
	movw r24,r14
	call osEE_change_context_from_running
.LVL144:
	.loc 1 2022 0
	std Y+5,__zero_reg__
	std Y+4,__zero_reg__
.LVL145:
.L100:
.LBB567:
.LBB568:
.LBB569:
.LBB570:
	.loc 2 123 0
	.loc 2 124 0
	out __SREG__,r13
.LVL146:
.LBE570:
.LBE569:
.LBE568:
.LBE567:
.LBE560:
	.loc 1 2047 0
	ldi r24,0
	ldi r25,0
/* epilogue start */
	pop r29
	pop r28
.LVL147:
	pop r17
	pop r16
	pop r15
	pop r14
.LVL148:
	pop r13
.LVL149:
	ret
	.cfi_endproc
.LFE72:
	.size	WaitEvent, .-WaitEvent
	.section	.text.SetEvent,"ax",@progbits
.global	SetEvent
	.type	SetEvent, @function
SetEvent:
.LFB73:
	.loc 1 2055 0
	.cfi_startproc
.LVL150:
	push r17
.LCFI42:
	.cfi_def_cfa_offset 3
	.cfi_offset 17, -2
	push r28
.LCFI43:
	.cfi_def_cfa_offset 4
	.cfi_offset 28, -3
	push r29
.LCFI44:
	.cfi_def_cfa_offset 5
	.cfi_offset 29, -4
	rcall .
.LCFI45:
	.cfi_def_cfa_offset 7
	in r28,__SP_L__
	in r29,__SP_H__
.LCFI46:
	.cfi_def_cfa_register 28
/* prologue: function */
/* frame size = 2 */
/* stack size = 5 */
.L__stack_usage = 5
.LVL151:
.LBB571:
.LBB572:
	.loc 3 276 0
	ldi r25,0
.LBE572:
.LBE571:
	.loc 1 2103 0
	lds r18,osEE_kdb_var+4
	lds r19,osEE_kdb_var+4+1
	cp r24,r18
	cpc r25,r19
	brlo .L102
	.loc 1 2104 0
	ldi r24,lo8(3)
	ldi r25,0
.LVL152:
	std Y+2,r25
	std Y+1,r24
	rjmp .L103
.LVL153:
.L102:
.LBB573:
	.loc 1 2109 0
	lds r30,osEE_kdb_var+2
	lds r31,osEE_kdb_var+2+1
	lsl r24
	rol r25
.LVL154:
	add r30,r24
	adc r31,r25
	ld r24,Z
	ldd r25,Z+1
.LVL155:
.LBB574:
.LBB575:
.LBB576:
.LBB577:
	.loc 2 116 0
	in r17,__SREG__
.LVL156:
.LBB578:
.LBB579:
	.loc 2 105 0
/* #APP */
 ;  105 "C:\Evidence\WORKSP~1\FULL_P~1\erika\src\ee_hal_internal.h" 1
	cli
 ;  0 "" 2
/* #NOAPP */
.LBE579:
.LBE578:
.LBE577:
.LBE576:
.LBE575:
.LBE574:
	.loc 1 2113 0
	movw r20,r28
	subi r20,-1
	sbci r21,-1
	call osEE_task_event_set_mask
.LVL157:
	.loc 1 2115 0
	sbiw r24,0
	breq .L105
	.loc 1 2117 0
	movw r22,r24
	ldi r24,lo8(osEE_kdb_var)
	ldi r25,hi8(osEE_kdb_var)
.LVL158:
	call osEE_scheduler_task_unblocked
.LVL159:
	or r24,r25
	breq .L105
	.loc 1 2119 0
	ldi r24,lo8(osEE_kdb_var)
	ldi r25,hi8(osEE_kdb_var)
	call osEE_scheduler_task_preemption_point
.LVL160:
.L105:
.LBB580:
.LBB581:
.LBB582:
.LBB583:
	.loc 2 123 0
	.loc 2 124 0
	out __SREG__,r17
.LVL161:
.L103:
.LBE583:
.LBE582:
.LBE581:
.LBE580:
.LBE573:
	.loc 1 2141 0
	ldd r24,Y+1
	ldd r25,Y+2
/* epilogue start */
	pop __tmp_reg__
	pop __tmp_reg__
	pop r29
	pop r28
	pop r17
	ret
	.cfi_endproc
.LFE73:
	.size	SetEvent, .-SetEvent
	.section	.text.GetEvent,"ax",@progbits
.global	GetEvent
	.type	GetEvent, @function
GetEvent:
.LFB74:
	.loc 1 2149 0
	.cfi_startproc
.LVL162:
/* prologue: function */
/* frame size = 0 */
/* stack size = 0 */
.L__stack_usage = 0
.LBB584:
.LBB585:
	.loc 3 276 0
	ldi r25,0
.LBE585:
.LBE584:
	.loc 1 2202 0
	lds r18,osEE_kdb_var+4
	lds r19,osEE_kdb_var+4+1
	cp r24,r18
	cpc r25,r19
	brsh .L112
.LBB586:
	.loc 1 2207 0
	lds r30,osEE_kdb_var+2
	lds r31,osEE_kdb_var+2+1
	lsl r24
	rol r25
.LVL163:
	add r30,r24
	adc r31,r25
	.loc 1 2209 0
	ld __tmp_reg__,Z+
	ld r31,Z
	mov r30,__tmp_reg__
	ldd __tmp_reg__,Z+4
	ldd r31,Z+5
	mov r30,__tmp_reg__
.LVL164:
	.loc 1 2220 0
	cp r22,__zero_reg__
	cpc r23,__zero_reg__
	breq .L113
	.loc 1 2225 0
	ldd r24,Z+6
	ldd r25,Z+7
	movw r30,r22
.LVL165:
	std Z+1,r25
	st Z,r24
.LVL166:
	.loc 1 2227 0
	ldi r24,0
	ldi r25,0
	ret
.LVL167:
.L112:
.LBE586:
	.loc 1 2203 0
	ldi r24,lo8(3)
	ldi r25,0
.LVL168:
	ret
.LVL169:
.L113:
.LBB587:
	.loc 1 2221 0
	ldi r24,lo8(14)
	ldi r25,0
.LVL170:
.LBE587:
	.loc 1 2247 0
	ret
	.cfi_endproc
.LFE74:
	.size	GetEvent, .-GetEvent
	.section	.text.ClearEvent,"ax",@progbits
.global	ClearEvent
	.type	ClearEvent, @function
ClearEvent:
.LFB75:
	.loc 1 2254 0
	.cfi_startproc
.LVL171:
/* prologue: function */
/* frame size = 0 */
/* stack size = 0 */
.L__stack_usage = 0
	.loc 1 2265 0
	lds r30,osEE_cdb_var
	lds r31,osEE_cdb_var+1
	.loc 1 2267 0
	ld __tmp_reg__,Z+
	ld r31,Z
	mov r30,__tmp_reg__
	ldd __tmp_reg__,Z+4
	ldd r31,Z+5
	mov r30,__tmp_reg__
.LVL172:
.LBB588:
.LBB589:
.LBB590:
.LBB591:
.LBB592:
	.loc 2 116 0
	in r18,__SREG__
.LVL173:
.LBB593:
.LBB594:
	.loc 2 105 0
/* #APP */
 ;  105 "C:\Evidence\WORKSP~1\FULL_P~1\erika\src\ee_hal_internal.h" 1
	cli
 ;  0 "" 2
.LVL174:
/* #NOAPP */
.LBE594:
.LBE593:
.LBE592:
.LBE591:
.LBE590:
.LBE589:
	.loc 1 2305 0
	com r24
	com r25
.LVL175:
	ldd r20,Z+6
	ldd r21,Z+7
	and r24,r20
	and r25,r21
.LVL176:
	std Z+7,r25
	std Z+6,r24
.LVL177:
.LBB595:
.LBB596:
.LBB597:
.LBB598:
	.loc 2 123 0
	.loc 2 124 0
	out __SREG__,r18
.LVL178:
.LBE598:
.LBE597:
.LBE596:
.LBE595:
.LBE588:
	.loc 1 2326 0
	ldi r24,0
	ldi r25,0
	ret
	.cfi_endproc
.LFE75:
	.size	ClearEvent, .-ClearEvent
	.section	.text.GetISRID,"ax",@progbits
.global	GetISRID
	.type	GetISRID, @function
GetISRID:
.LFB76:
	.loc 1 3316 0
	.cfi_startproc
/* prologue: function */
/* frame size = 0 */
/* stack size = 0 */
.L__stack_usage = 0
.LBB599:
.LBB600:
	.loc 3 172 0
	lds r30,osEE_cdb_var
	lds r31,osEE_cdb_var+1
	ld __tmp_reg__,Z+
	ld r31,Z
	mov r30,__tmp_reg__
.LBE600:
.LBE599:
	.loc 1 3321 0
	ldd r24,Z+7
	ldd r25,Z+8
	sbiw r24,2
	brne .L117
	.loc 1 3322 0
	ldd r24,Z+6
.LVL179:
	ret
.LVL180:
.L117:
	.loc 1 3324 0
	ldi r24,lo8(-1)
.LVL181:
	.loc 1 3328 0
	ret
	.cfi_endproc
.LFE76:
	.size	GetISRID, .-GetISRID
	.text
.Letext0:
	.file 6 "c:\\progra~2\\arduino\\hardware\\tools\\avr\\avr\\include\\stdint.h"
	.file 7 "C:\\Evidence\\WORKSP~1\\FULL_P~1\\erika\\inc/ee_platform_types.h"
	.file 8 "C:\\Evidence\\WORKSP~1\\FULL_P~1\\erika\\inc/ee_api_types.h"
	.file 9 "C:\\Evidence\\WORKSP~1\\FULL_P~1\\erika\\inc/ee_kernel_types.h"
	.file 10 "C:\\Evidence\\WORKSP~1\\FULL_P~1\\erika\\inc/ee_hal_internal_types.h"
	.file 11 "C:\\Evidence\\WORKSP~1\\FULL_P~1\\erika\\inc/ee_get_kernel_and_core.h"
	.file 12 "C:\\Evidence\\WORKSP~1\\FULL_P~1\\erika\\src\\ee_scheduler.h"
	.file 13 "C:\\Evidence\\WORKSP~1\\FULL_P~1\\erika\\inc/ee_oo_api_osek.h"